target datalayout = "e-m:e-p270:32:32-p271:32:32-p272:64:64-i64:64-i128:128-f80:128-n8:16:32:64-S128"
target triple = "x86_64-unknown-linux-gnu"

%"class.icu_75::MessageFormat" = type { %"class.icu_75::Format.base", [6 x i8], %"class.icu_75::Locale", %"class.icu_75::MessagePattern", ptr, i32, ptr, i32, i32, i8, ptr, ptr, ptr, ptr, %"class.icu_75::MessageFormat::PluralSelectorProvider", %"class.icu_75::MessageFormat::PluralSelectorProvider" }
%"class.icu_75::Format.base" = type <{ %"class.icu_75::UObject", [157 x i8], [157 x i8] }>
%"class.icu_75::UObject" = type { ptr }
%"class.icu_75::Locale" = type <{ %"class.icu_75::UObject", [12 x i8], [6 x i8], [4 x i8], [2 x i8], i32, [4 x i8], ptr, [157 x i8], [3 x i8], ptr, i8, [7 x i8] }>
%"class.icu_75::MessagePattern" = type <{ %"class.icu_75::UObject", i32, [4 x i8], %"class.icu_75::UnicodeString", ptr, ptr, i32, [4 x i8], ptr, ptr, i32, i8, i8, i8, i8 }>
%"class.icu_75::UnicodeString" = type { %"class.icu_75::Replaceable", %"union.icu_75::UnicodeString::StackBufferOrFields" }
%"class.icu_75::Replaceable" = type { %"class.icu_75::UObject" }
%"union.icu_75::UnicodeString::StackBufferOrFields" = type { %struct.anon.0, [32 x i8] }
%struct.anon.0 = type { i16, i32, i32, ptr }
%"class.icu_75::MessageFormat::PluralSelectorProvider" = type <{ %"class.icu_75::PluralFormat::PluralSelector", ptr, ptr, i32, [4 x i8] }>
%"class.icu_75::PluralFormat::PluralSelector" = type { ptr }

@_ZN6icu_7513MessageFormat22PluralSelectorProviderC1ERKS0_11UPluralType = unnamed_addr alias void (ptr, ptr, i32), ptr @_ZN6icu_7513MessageFormat22PluralSelectorProviderC2ERKS0_11UPluralType
@_ZN6icu_7513MessageFormat22PluralSelectorProviderD1Ev = unnamed_addr alias void (ptr), ptr @_ZN6icu_7513MessageFormat22PluralSelectorProviderD2Ev

; Function Attrs: mustprogress nounwind uwtable
define linkonce_odr noundef ptr @_ZNK6icu_756Locale7getNameEv(ptr noundef nonnull align 8 dereferenceable(217) %this) #0 comdat align 2 {
entry:
  %this.addr = alloca ptr, align 8
  store ptr %this, ptr %this.addr, align 8
  %this1 = load ptr, ptr %this.addr, align 8
  %fullName = getelementptr inbounds %"class.icu_75::Locale", ptr %this1, i32 0, i32 7
  %0 = load ptr, ptr %fullName, align 8
  ret ptr %0
}

; Function Attrs: mustprogress uwtable
define void @_ZN6icu_7513MessageFormatC2ERKNS_13UnicodeStringERKNS_6LocaleER10UErrorCode(ptr noundef nonnull align 8 dereferenceable(816) %this, ptr noundef nonnull align 8 dereferenceable(64) %pattern, ptr noundef nonnull align 8 dereferenceable(217) %newLocale, ptr noundef nonnull align 4 dereferenceable(4) %success) unnamed_addr #1 align 2 personality ptr @__gxx_personality_v0 {
entry:
  %this.addr = alloca ptr, align 8
  %pattern.addr = alloca ptr, align 8
  %newLocale.addr = alloca ptr, align 8
  %success.addr = alloca ptr, align 8
  %exn.slot = alloca ptr, align 8
  %ehselector.slot = alloca i32, align 4
  store ptr %this, ptr %this.addr, align 8
  store ptr %pattern, ptr %pattern.addr, align 8
  store ptr %newLocale, ptr %newLocale.addr, align 8
  store ptr %success, ptr %success.addr, align 8
  %this1 = load ptr, ptr %this.addr, align 8
  call void @_ZN6icu_756FormatC2Ev(ptr noundef nonnull align 8 dereferenceable(322) %this1)
  store ptr getelementptr inbounds ({ [27 x ptr] }, ptr @_ZTVN6icu_7513MessageFormatE, i32 0, i32 0, i32 2), ptr %this1, align 8
  %fLocale = getelementptr inbounds %"class.icu_75::MessageFormat", ptr %this1, i32 0, i32 2
  %0 = load ptr, ptr %newLocale.addr, align 8
  invoke void @_ZN6icu_756LocaleC1ERKS0_(ptr noundef nonnull align 8 dereferenceable(217) %fLocale, ptr noundef nonnull align 8 dereferenceable(217) %0)
          to label %invoke.cont unwind label %lpad

invoke.cont:                                      ; preds = %entry
  %msgPattern = getelementptr inbounds %"class.icu_75::MessageFormat", ptr %this1, i32 0, i32 3
  %1 = load ptr, ptr %success.addr, align 8
  invoke void @_ZN6icu_7514MessagePatternC1ER10UErrorCode(ptr noundef nonnull align 8 dereferenceable(127) %msgPattern, ptr noundef nonnull align 4 dereferenceable(4) %1)
          to label %invoke.cont3 unwind label %lpad2

invoke.cont3:                                     ; preds = %invoke.cont
  %formatAliases = getelementptr inbounds %"class.icu_75::MessageFormat", ptr %this1, i32 0, i32 4
  store ptr null, ptr %formatAliases, align 8
  %formatAliasesCapacity = getelementptr inbounds %"class.icu_75::MessageFormat", ptr %this1, i32 0, i32 5
  store i32 0, ptr %formatAliasesCapacity, align 8
  %argTypes = getelementptr inbounds %"class.icu_75::MessageFormat", ptr %this1, i32 0, i32 6
  store ptr null, ptr %argTypes, align 8
  %argTypeCount = getelementptr inbounds %"class.icu_75::MessageFormat", ptr %this1, i32 0, i32 7
  store i32 0, ptr %argTypeCount, align 8
  %argTypeCapacity = getelementptr inbounds %"class.icu_75::MessageFormat", ptr %this1, i32 0, i32 8
  store i32 0, ptr %argTypeCapacity, align 4
  %hasArgTypeConflicts = getelementptr inbounds %"class.icu_75::MessageFormat", ptr %this1, i32 0, i32 9
  store i8 0, ptr %hasArgTypeConflicts, align 8
  %defaultNumberFormat = getelementptr inbounds %"class.icu_75::MessageFormat", ptr %this1, i32 0, i32 10
  store ptr null, ptr %defaultNumberFormat, align 8
  %defaultDateFormat = getelementptr inbounds %"class.icu_75::MessageFormat", ptr %this1, i32 0, i32 11
  store ptr null, ptr %defaultDateFormat, align 8
  %cachedFormatters = getelementptr inbounds %"class.icu_75::MessageFormat", ptr %this1, i32 0, i32 12
  store ptr null, ptr %cachedFormatters, align 8
  %customFormatArgStarts = getelementptr inbounds %"class.icu_75::MessageFormat", ptr %this1, i32 0, i32 13
  store ptr null, ptr %customFormatArgStarts, align 8
  %pluralProvider = getelementptr inbounds %"class.icu_75::MessageFormat", ptr %this1, i32 0, i32 14
  invoke void @_ZN6icu_7513MessageFormat22PluralSelectorProviderC1ERKS0_11UPluralType(ptr noundef nonnull align 8 dereferenceable(28) %pluralProvider, ptr noundef nonnull align 8 dereferenceable(816) %this1, i32 noundef 0)
          to label %invoke.cont5 unwind label %lpad4

invoke.cont5:                                     ; preds = %invoke.cont3
  %ordinalProvider = getelementptr inbounds %"class.icu_75::MessageFormat", ptr %this1, i32 0, i32 15
  invoke void @_ZN6icu_7513MessageFormat22PluralSelectorProviderC1ERKS0_11UPluralType(ptr noundef nonnull align 8 dereferenceable(28) %ordinalProvider, ptr noundef nonnull align 8 dereferenceable(816) %this1, i32 noundef 1)
          to label %invoke.cont7 unwind label %lpad6

invoke.cont7:                                     ; preds = %invoke.cont5
  %fLocale8 = getelementptr inbounds %"class.icu_75::MessageFormat", ptr %this1, i32 0, i32 2
  %call = invoke noundef ptr @_ZNK6icu_756Locale7getNameEv(ptr noundef nonnull align 8 dereferenceable(217) %fLocale8)
          to label %invoke.cont10 unwind label %lpad9

invoke.cont10:                                    ; preds = %invoke.cont7
  %fLocale11 = getelementptr inbounds %"class.icu_75::MessageFormat", ptr %this1, i32 0, i32 2
  %call13 = invoke noundef ptr @_ZNK6icu_756Locale7getNameEv(ptr noundef nonnull align 8 dereferenceable(217) %fLocale11)
          to label %invoke.cont12 unwind label %lpad9

invoke.cont12:                                    ; preds = %invoke.cont10
  invoke void @_ZN6icu_756Format12setLocaleIDsEPKcS2_(ptr noundef nonnull align 8 dereferenceable(322) %this1, ptr noundef %call, ptr noundef %call13)
          to label %invoke.cont14 unwind label %lpad9

invoke.cont14:                                    ; preds = %invoke.cont12
  %2 = load ptr, ptr %pattern.addr, align 8
  %3 = load ptr, ptr %success.addr, align 8
  %vtable = load ptr, ptr %this1, align 8
  %vfn = getelementptr inbounds ptr, ptr %vtable, i64 10
  %4 = load ptr, ptr %vfn, align 8
  invoke void %4(ptr noundef nonnull align 8 dereferenceable(816) %this1, ptr noundef nonnull align 8 dereferenceable(64) %2, ptr noundef nonnull align 4 dereferenceable(4) %3)
          to label %invoke.cont15 unwind label %lpad9

invoke.cont15:                                    ; preds = %invoke.cont14
  ret void

lpad:                                             ; preds = %entry
  %5 = landingpad { ptr, i32 }
          cleanup
  %6 = extractvalue { ptr, i32 } %5, 0
  store ptr %6, ptr %exn.slot, align 8
  %7 = extractvalue { ptr, i32 } %5, 1
  store i32 %7, ptr %ehselector.slot, align 4
  br label %ehcleanup18

lpad2:                                            ; preds = %invoke.cont
  %8 = landingpad { ptr, i32 }
          cleanup
  %9 = extractvalue { ptr, i32 } %8, 0
  store ptr %9, ptr %exn.slot, align 8
  %10 = extractvalue { ptr, i32 } %8, 1
  store i32 %10, ptr %ehselector.slot, align 4
  br label %ehcleanup17

lpad4:                                            ; preds = %invoke.cont3
  %11 = landingpad { ptr, i32 }
          cleanup
  %12 = extractvalue { ptr, i32 } %11, 0
  store ptr %12, ptr %exn.slot, align 8
  %13 = extractvalue { ptr, i32 } %11, 1
  store i32 %13, ptr %ehselector.slot, align 4
  br label %ehcleanup16

lpad6:                                            ; preds = %invoke.cont5
  %14 = landingpad { ptr, i32 }
          cleanup
  %15 = extractvalue { ptr, i32 } %14, 0
  store ptr %15, ptr %exn.slot, align 8
  %16 = extractvalue { ptr, i32 } %14, 1
  store i32 %16, ptr %ehselector.slot, align 4
  br label %ehcleanup

lpad9:                                            ; preds = %invoke.cont14, %invoke.cont12, %invoke.cont10, %invoke.cont7
  %17 = landingpad { ptr, i32 }
          cleanup
  %18 = extractvalue { ptr, i32 } %17, 0
  store ptr %18, ptr %exn.slot, align 8
  %19 = extractvalue { ptr, i32 } %17, 1
  store i32 %19, ptr %ehselector.slot, align 4
  call void @_ZN6icu_7513MessageFormat22PluralSelectorProviderD1Ev(ptr noundef nonnull align 8 dereferenceable(28) %ordinalProvider) #11
  br label %ehcleanup

ehcleanup:                                        ; preds = %lpad9, %lpad6
  call void @_ZN6icu_7513MessageFormat22PluralSelectorProviderD1Ev(ptr noundef nonnull align 8 dereferenceable(28) %pluralProvider) #11
  br label %ehcleanup16

ehcleanup16:                                      ; preds = %ehcleanup, %lpad4
  call void @_ZN6icu_7514MessagePatternD1Ev(ptr noundef nonnull align 8 dereferenceable(127) %msgPattern) #11
  br label %ehcleanup17

ehcleanup17:                                      ; preds = %ehcleanup16, %lpad2
  call void @_ZN6icu_756LocaleD1Ev(ptr noundef nonnull align 8 dereferenceable(217) %fLocale) #11
  br label %ehcleanup18

ehcleanup18:                                      ; preds = %ehcleanup17, %lpad
  call void @_ZN6icu_756FormatD2Ev(ptr noundef nonnull align 8 dereferenceable(322) %this1) #11
  br label %eh.resume

eh.resume:                                        ; preds = %ehcleanup18
  %exn = load ptr, ptr %exn.slot, align 8
  %sel = load i32, ptr %ehselector.slot, align 4
  %lpad.val = insertvalue { ptr, i32 } poison, ptr %exn, 0
  %lpad.val19 = insertvalue { ptr, i32 } %lpad.val, i32 %sel, 1
  resume { ptr, i32 } %lpad.val19
}