; Function Attrs: mustprogress uwtable
define void @_ZN6icu_7513MessageFormatC2ERKNS_13UnicodeStringERKNS_6LocaleER10UErrorCode(ptr noundef nonnull align 8 dereferenceable(816) %this, ptr noundef nonnull align 8 dereferenceable(64) %pattern, ptr noundef nonnull align 8 dereferenceable(217) %newLocale, ptr noundef nonnull align 4 dereferenceable(4) %success) unnamed_addr #1 align 2 personality ptr @__gxx_personality_v0 {
entry:
  tail call void @_ZN6icu_756FormatC2Ev(ptr noundef nonnull align 8 dereferenceable(322) %this)
  store ptr getelementptr inbounds ({ [27 x ptr] }, ptr @_ZTVN6icu_7513MessageFormatE, i64 0, i32 0, i64 2), ptr %this, align 8
  %fLocale = getelementptr inbounds i8, ptr %this, i64 328
  invoke void @_ZN6icu_756LocaleC1ERKS0_(ptr noundef nonnull align 8 dereferenceable(217) %fLocale, ptr noundef nonnull align 8 dereferenceable(217) %newLocale)
          to label %invoke.cont unwind label %lpad

invoke.cont:                                      ; preds = %entry
  %msgPattern = getelementptr inbounds i8, ptr %this, i64 552
  invoke void @_ZN6icu_7514MessagePatternC1ER10UErrorCode(ptr noundef nonnull align 8 dereferenceable(127) %msgPattern, ptr noundef nonnull align 4 dereferenceable(4) %success)
          to label %invoke.cont3 unwind label %lpad2

invoke.cont3:                                     ; preds = %invoke.cont
  %formatAliases = getelementptr inbounds i8, ptr %this, i64 680
  store ptr null, ptr %formatAliases, align 8
  %formatAliasesCapacity = getelementptr inbounds i8, ptr %this, i64 688
  store i32 0, ptr %formatAliasesCapacity, align 8
  %argTypes = getelementptr inbounds i8, ptr %this, i64 696
  %defaultNumberFormat = getelementptr inbounds i8, ptr %this, i64 720
  %pluralProvider = getelementptr inbounds i8, ptr %this, i64 752
  tail call void @llvm.memset.p0.i64(ptr noundef nonnull align 8 dereferenceable(17) %argTypes, i8 0, i64 17, i1 false)
  tail call void @llvm.memset.p0.i64(ptr noundef nonnull align 8 dereferenceable(32) %defaultNumberFormat, i8 0, i64 32, i1 false)
  invoke void @_ZN6icu_7513MessageFormat22PluralSelectorProviderC1ERKS0_11UPluralType(ptr noundef nonnull align 8 dereferenceable(28) %pluralProvider, ptr noundef nonnull align 8 dereferenceable(816) %this, i32 noundef 0)
          to label %invoke.cont5 unwind label %lpad4

invoke.cont5:                                     ; preds = %invoke.cont3
  %ordinalProvider = getelementptr inbounds i8, ptr %this, i64 784
  invoke void @_ZN6icu_7513MessageFormat22PluralSelectorProviderC1ERKS0_11UPluralType(ptr noundef nonnull align 8 dereferenceable(28) %ordinalProvider, ptr noundef nonnull align 8 dereferenceable(816) %this, i32 noundef 1)
          to label %invoke.cont7 unwind label %lpad6

invoke.cont7:                                     ; preds = %invoke.cont5
  %fullName.i = getelementptr inbounds i8, ptr %this, i64 368
  %0 = load ptr, ptr %fullName.i, align 8
  invoke void @_ZN6icu_756Format12setLocaleIDsEPKcS2_(ptr noundef nonnull align 8 dereferenceable(322) %this, ptr noundef %0, ptr noundef %0)
          to label %invoke.cont14 unwind label %lpad9

invoke.cont14:                                    ; preds = %invoke.cont7
  %vtable = load ptr, ptr %this, align 8
  %vfn = getelementptr inbounds i8, ptr %vtable, i64 80
  %1 = load ptr, ptr %vfn, align 8
  invoke void %1(ptr noundef nonnull align 8 dereferenceable(816) %this, ptr noundef nonnull align 8 dereferenceable(64) %pattern, ptr noundef nonnull align 4 dereferenceable(4) %success)
          to label %invoke.cont15 unwind label %lpad9

invoke.cont15:                                    ; preds = %invoke.cont14
  ret void

lpad:                                             ; preds = %entry
  %2 = landingpad { ptr, i32 }
          cleanup
  br label %ehcleanup18

lpad2:                                            ; preds = %invoke.cont
  %3 = landingpad { ptr, i32 }
          cleanup
  br label %ehcleanup17

lpad4:                                            ; preds = %invoke.cont3
  %4 = landingpad { ptr, i32 }
          cleanup
  br label %ehcleanup16

lpad6:                                            ; preds = %invoke.cont5
  %5 = landingpad { ptr, i32 }
          cleanup
  br label %ehcleanup

lpad9:                                            ; preds = %invoke.cont14, %invoke.cont7
  %6 = landingpad { ptr, i32 }
          cleanup
  tail call void @_ZN6icu_7513MessageFormat22PluralSelectorProviderD1Ev(ptr noundef nonnull align 8 dereferenceable(28) %ordinalProvider) #19
  br label %ehcleanup

ehcleanup:                                        ; preds = %lpad9, %lpad6
  %.pn = phi { ptr, i32 } [ %6, %lpad9 ], [ %5, %lpad6 ]
  tail call void @_ZN6icu_7513MessageFormat22PluralSelectorProviderD1Ev(ptr noundef nonnull align 8 dereferenceable(28) %pluralProvider) #19
  br label %ehcleanup16

ehcleanup16:                                      ; preds = %ehcleanup, %lpad4
  %.pn.pn = phi { ptr, i32 } [ %.pn, %ehcleanup ], [ %4, %lpad4 ]
  tail call void @_ZN6icu_7514MessagePatternD1Ev(ptr noundef nonnull align 8 dereferenceable(127) %msgPattern) #19
  br label %ehcleanup17

ehcleanup17:                                      ; preds = %ehcleanup16, %lpad2
  %.pn.pn.pn = phi { ptr, i32 } [ %.pn.pn, %ehcleanup16 ], [ %3, %lpad2 ]
  tail call void @_ZN6icu_756LocaleD1Ev(ptr noundef nonnull align 8 dereferenceable(217) %fLocale) #19
  br label %ehcleanup18

ehcleanup18:                                      ; preds = %ehcleanup17, %lpad
  %.pn.pn.pn.pn = phi { ptr, i32 } [ %.pn.pn.pn, %ehcleanup17 ], [ %2, %lpad ]
  tail call void @_ZN6icu_756FormatD2Ev(ptr noundef nonnull align 8 dereferenceable(322) %this) #19
  resume { ptr, i32 } %.pn.pn.pn.pn
}